target datalayout = "e-m:e-p270:32:32-p271:32:32-p272:64:64-i64:64-i128:128-f80:128-n8:16:32:64-S128"
target triple = "x86_64-pc-linux-gnu"

%struct._lv_obj_t = type { ptr, ptr, ptr, ptr, ptr, %struct.lv_area_t, i32, i16, i16 }
%struct.lv_area_t = type { i32, i32, i32, i32 }
%struct._lv_menu_page_t = type { %struct._lv_obj_t, ptr, i8 }

; Function Attrs: nounwind uwtable
define void @lv_menu_set_page_title_static(ptr noundef %0, ptr noundef %1) #0 {
  %3 = alloca ptr, align 8
  %4 = alloca ptr, align 8
  %5 = alloca ptr, align 8
  store ptr %0, ptr %3, align 8, !tbaa !3
  store ptr %1, ptr %4, align 8, !tbaa !3
  br label %6

6:                                                ; preds = %2
  br label %7

7:                                                ; preds = %6
  call void @llvm.lifetime.start.p0(i64 8, ptr %5) #3
  %8 = load ptr, ptr %3, align 8, !tbaa !3
  store ptr %8, ptr %5, align 8, !tbaa !3
  %9 = load ptr, ptr %5, align 8, !tbaa !3
  %10 = getelementptr inbounds nuw %struct._lv_menu_page_t, ptr %9, i32 0, i32 2
  %11 = load i8, ptr %10, align 8, !tbaa !27, !range !30, !noundef !31
  %12 = trunc i8 %11 to i1
  br i1 %12, label %24, label %13

13:                                               ; preds = %7
  %14 = load ptr, ptr %5, align 8, !tbaa !3
  %15 = getelementptr inbounds nuw %struct._lv_menu_page_t, ptr %14, i32 0, i32 1
  %16 = load ptr, ptr %15, align 8, !tbaa !32
  %17 = icmp ne ptr %16, null
  br i1 %17, label %18, label %24

18:                                               ; preds = %13
  %19 = load ptr, ptr %5, align 8, !tbaa !3
  %20 = getelementptr inbounds nuw %struct._lv_menu_page_t, ptr %19, i32 0, i32 1
  %21 = load ptr, ptr %20, align 8, !tbaa !32
  call void @lv_free(ptr noundef %21)
  %22 = load ptr, ptr %5, align 8, !tbaa !3
  %23 = getelementptr inbounds nuw %struct._lv_menu_page_t, ptr %22, i32 0, i32 1
  store ptr null, ptr %23, align 8, !tbaa !32
  br label %24

24:                                               ; preds = %18, %13, %7
  %25 = load ptr, ptr %4, align 8, !tbaa !3
  %26 = icmp ne ptr %25, null
  br i1 %26, label %27, label %33

27:                                               ; preds = %24
  %28 = load ptr, ptr %4, align 8, !tbaa !3
  %29 = load ptr, ptr %5, align 8, !tbaa !3
  %30 = getelementptr inbounds nuw %struct._lv_menu_page_t, ptr %29, i32 0, i32 1
  store ptr %28, ptr %30, align 8, !tbaa !32
  %31 = load ptr, ptr %5, align 8, !tbaa !3
  %32 = getelementptr inbounds nuw %struct._lv_menu_page_t, ptr %31, i32 0, i32 2
  store i8 1, ptr %32, align 8, !tbaa !27
  br label %38

33:                                               ; preds = %24
  %34 = load ptr, ptr %5, align 8, !tbaa !3
  %35 = getelementptr inbounds nuw %struct._lv_menu_page_t, ptr %34, i32 0, i32 1
  store ptr null, ptr %35, align 8, !tbaa !32
  %36 = load ptr, ptr %5, align 8, !tbaa !3
  %37 = getelementptr inbounds nuw %struct._lv_menu_page_t, ptr %36, i32 0, i32 2
  store i8 0, ptr %37, align 8, !tbaa !27
  br label %38

38:                                               ; preds = %33, %27
  call void @llvm.lifetime.end.p0(i64 8, ptr %5) #3
  ret void
}